; Function Attrs: mustprogress uwtable
define void @_ZN16OverlayScrollBar17mouseReleaseEventEP11QMouseEvent(ptr noundef nonnull align 8 dereferenceable(196) %0, ptr nocapture noundef readonly %1) unnamed_addr #0 align 2 personality ptr @__gxx_personality_v0 {
  %3 = alloca %class.QRect, align 4
  %4 = alloca %class.QPoint, align 8
  %5 = getelementptr inbounds i8, ptr %0, i64 144
  %6 = load i32, ptr %5, align 8
  %7 = getelementptr inbounds i8, ptr %0, i64 32
  %8 = load ptr, ptr %7, align 8
  %9 = getelementptr inbounds i8, ptr %8, i64 32
  %10 = load i32, ptr %9, align 4
  %11 = getelementptr inbounds i8, ptr %8, i64 24
  %12 = load i32, ptr %11, align 4
  store i32 0, ptr %3, align 4
  %13 = getelementptr inbounds i8, ptr %3, i64 4
  store i32 0, ptr %13, align 4
  %14 = getelementptr inbounds i8, ptr %3, i64 8
  %15 = add i32 %6, -1
  store i32 %15, ptr %14, align 4
  %16 = getelementptr inbounds i8, ptr %3, i64 12
  %17 = sub i32 %10, %12
  store i32 %17, ptr %16, align 4
  %18 = getelementptr inbounds i8, ptr %1, i64 48
  %19 = load ptr, ptr %18, align 8
  %20 = tail call { double, double } @_ZNK11QEventPoint8positionEv(ptr noundef nonnull align 8 dereferenceable(8) %19)
  %21 = extractvalue { double, double } %20, 0
  %22 = extractvalue { double, double } %20, 1
  %23 = tail call double @llvm.copysign.f64(double 5.000000e-01, double %21)
  %24 = fadd double %21, %23
  %25 = fptosi double %24 to i32
  %26 = tail call double @llvm.copysign.f64(double 5.000000e-01, double %22)
  %27 = fadd double %22, %26
  %28 = fptosi double %27 to i32
  %.sroa.2.0.insert.ext.i.i = zext i32 %28 to i64
  %.sroa.2.0.insert.shift.i.i = shl nuw i64 %.sroa.2.0.insert.ext.i.i, 32
  %.sroa.0.0.insert.ext.i.i = zext i32 %25 to i64
  %.sroa.0.0.insert.insert.i.i = or disjoint i64 %.sroa.2.0.insert.shift.i.i, %.sroa.0.0.insert.ext.i.i
  store i64 %.sroa.0.0.insert.insert.i.i, ptr %4, align 8
  %29 = call noundef zeroext i1 @_ZNK5QRect8containsERK6QPointb(ptr noundef nonnull align 4 dereferenceable(16) %3, ptr noundef nonnull align 4 dereferenceable(8) %4, i1 noundef zeroext false) #11
  br i1 %29, label %30, label %.critedge

30:                                               ; preds = %2
  %31 = load ptr, ptr %7, align 8
  %32 = getelementptr inbounds i8, ptr %31, i64 32
  %33 = load i32, ptr %32, align 4
  %34 = getelementptr inbounds i8, ptr %31, i64 24
  %35 = load i32, ptr %34, align 4
  %36 = add i32 %33, 1
  %37 = sub i32 %36, %35
  %38 = icmp sgt i32 %37, 0
  br i1 %38, label %39, label %.critedge

39:                                               ; preds = %30
  %40 = getelementptr inbounds i8, ptr %0, i64 152
  %41 = load i32, ptr %40, align 8
  %42 = icmp sgt i32 %41, 0
  br i1 %42, label %43, label %.critedge

43:                                               ; preds = %39
  %44 = call noundef i32 @_ZNK15QAbstractSlider8pageStepEv(ptr noundef nonnull align 8 dereferenceable(40) %0)
  %45 = icmp sgt i32 %44, 0
  br i1 %45, label %46, label %.critedge

46:                                               ; preds = %43
  %47 = getelementptr inbounds i8, ptr %0, i64 160
  %48 = load i32, ptr %47, align 8
  %49 = getelementptr inbounds i8, ptr %0, i64 156
  %50 = load i32, ptr %49, align 4
  %51 = sub i32 %48, %50
  %52 = sitofp i32 %51 to double
  %53 = load ptr, ptr %7, align 8
  %54 = getelementptr inbounds i8, ptr %53, i64 32
  %55 = load i32, ptr %54, align 4
  %56 = getelementptr inbounds i8, ptr %53, i64 24
  %57 = load i32, ptr %56, align 4
  %58 = add i32 %55, 1
  %59 = sub i32 %58, %57
  %60 = sitofp i32 %59 to double
  %61 = fdiv double %52, %60
  %62 = load ptr, ptr %18, align 8
  %63 = call { double, double } @_ZNK11QEventPoint8positionEv(ptr noundef nonnull align 8 dereferenceable(8) %62)
  %64 = extractvalue { double, double } %63, 1
  %65 = call double @llvm.copysign.f64(double 5.000000e-01, double %64)
  %66 = fadd double %64, %65
  %67 = fptosi double %66 to i32
  %68 = sitofp i32 %67 to double
  %69 = load i32, ptr %49, align 4
  %70 = sitofp i32 %69 to double
  %71 = call double @llvm.fmuladd.f64(double %68, double %61, double %70)
  %72 = fptosi double %71 to i32
  %73 = call noundef i32 @_ZNK15QAbstractSlider7maximumEv(ptr noundef nonnull align 8 dereferenceable(40) %0)
  %74 = call noundef i32 @_ZNK15QAbstractSlider8pageStepEv(ptr noundef nonnull align 8 dereferenceable(40) %0)
  %75 = add i32 %74, %73
  %76 = call noundef i32 @_ZNK15QAbstractSlider7minimumEv(ptr noundef nonnull align 8 dereferenceable(40) %0)
  %77 = sub i32 %75, %76
  %78 = sitofp i32 %77 to double
  %79 = load i32, ptr %40, align 8
  %80 = sitofp i32 %79 to double
  %81 = fdiv double %78, %80
  %82 = call noundef i32 @_ZNK15QAbstractSlider8pageStepEv(ptr noundef nonnull align 8 dereferenceable(40) %0)
  %83 = sdiv i32 %82, 4
  %84 = sitofp i32 %72 to double
  %85 = sitofp i32 %83 to double
  %86 = fneg double %85
  %87 = call double @llvm.fmuladd.f64(double %84, double %81, double %86)
  %88 = fptosi double %87 to i32
  call void @_ZN15QAbstractSlider8setValueEi(ptr noundef nonnull align 8 dereferenceable(40) %0, i32 noundef %88)
  br label %.critedge

.critedge:                                        ; preds = %39, %30, %2, %46, %43
  ret void
}